target datalayout = "e-m:e-p270:32:32-p271:32:32-p272:64:64-i64:64-i128:128-f80:128-n8:16:32:64-S128"
target triple = "x86_64-pc-linux-gnu"

%"class.std::__shared_count" = type { ptr }
%"class.duckdb::DuckDB" = type { %"class.duckdb::shared_ptr.43" }
%"class.duckdb::shared_ptr.43" = type { %"class.std::shared_ptr.44" }
%"class.std::shared_ptr.44" = type { %"class.std::__shared_ptr.45" }
%"class.std::__shared_ptr.45" = type { ptr, %"class.std::__shared_count" }

; Function Attrs: mustprogress uwtable
define void @core_functions_init(ptr noundef nonnull align 8 dereferenceable(1912) %0) #4 personality ptr @__gxx_personality_v0 {
  %2 = alloca ptr, align 8
  %3 = alloca %"class.duckdb::DuckDB", align 8
  %4 = alloca ptr, align 8
  %5 = alloca i32, align 4
  store ptr %0, ptr %2, align 8, !tbaa !70
  call void @llvm.lifetime.start.p0(i64 16, ptr %3) #3
  %6 = load ptr, ptr %2, align 8, !tbaa !70
  call void @_ZN6duckdb6DuckDBC1ERNS_16DatabaseInstanceE(ptr noundef nonnull align 8 dereferenceable(16) %3, ptr noundef nonnull align 8 dereferenceable(1912) %6)
  invoke void @_ZN6duckdb12LoadInternalERNS_6DuckDBE(ptr noundef nonnull align 8 dereferenceable(16) %3)
          to label %7 unwind label %8

7:                                                ; preds = %1
  call void @_ZN6duckdb6DuckDBD1Ev(ptr noundef nonnull align 8 dereferenceable(16) %3) #3
  call void @llvm.lifetime.end.p0(i64 16, ptr %3) #3
  ret void

8:                                                ; preds = %1
  %9 = landingpad { ptr, i32 }
          cleanup
  %10 = extractvalue { ptr, i32 } %9, 0
  store ptr %10, ptr %4, align 8
  %11 = extractvalue { ptr, i32 } %9, 1
  store i32 %11, ptr %5, align 4
  call void @_ZN6duckdb6DuckDBD1Ev(ptr noundef nonnull align 8 dereferenceable(16) %3) #3
  call void @llvm.lifetime.end.p0(i64 16, ptr %3) #3
  br label %12

12:                                               ; preds = %8
  %13 = load ptr, ptr %4, align 8
  %14 = load i32, ptr %5, align 4
  %15 = insertvalue { ptr, i32 } poison, ptr %13, 0
  %16 = insertvalue { ptr, i32 } %15, i32 %14, 1
  resume { ptr, i32 } %16
}