; Function Attrs: mustprogress uwtable
define void @core_functions_init(ptr noundef nonnull align 8 dereferenceable(1912) %0) local_unnamed_addr #3 personality ptr @__gxx_personality_v0 {
  %2 = alloca %"class.duckdb::DuckDB", align 8
  call void @llvm.lifetime.start.p0(i64 16, ptr nonnull %2) #24
  call void @_ZN6duckdb6DuckDBC1ERNS_16DatabaseInstanceE(ptr noundef nonnull align 8 dereferenceable(16) %2, ptr noundef nonnull align 8 dereferenceable(1912) %0)
  invoke void @_ZN6duckdb12LoadInternalERNS_6DuckDBE(ptr noundef nonnull align 8 dereferenceable(16) %2)
          to label %3 unwind label %4

3:                                                ; preds = %1
  call void @_ZN6duckdb6DuckDBD1Ev(ptr noundef nonnull align 8 dereferenceable(16) %2) #24
  call void @llvm.lifetime.end.p0(i64 16, ptr nonnull %2) #24
  ret void

4:                                                ; preds = %1
  %5 = landingpad { ptr, i32 }
          cleanup
  call void @_ZN6duckdb6DuckDBD1Ev(ptr noundef nonnull align 8 dereferenceable(16) %2) #24
  call void @llvm.lifetime.end.p0(i64 16, ptr nonnull %2) #24
  resume { ptr, i32 } %5
}